   1              	 .cpu cortex-m0
   2              	 .fpu softvfp
   3              	 .eabi_attribute 20,1
   4              	 .eabi_attribute 21,1
   5              	 .eabi_attribute 23,3
   6              	 .eabi_attribute 24,1
   7              	 .eabi_attribute 25,1
   8              	 .eabi_attribute 26,1
   9              	 .eabi_attribute 30,2
  10              	 .eabi_attribute 34,0
  11              	 .eabi_attribute 18,4
  12              	 .code 16
  13              	 .file "pmsm_foc_pi.c"
  14              	 .text
  15              	.Ltext0:
  16              	 .cfi_sections .debug_frame
  17              	 .section .text.PI_controller_Init,"ax",%progbits
  18              	 .align 2
  19              	 .global PI_controller_Init
  20              	 .code 16
  21              	 .thumb_func
  23              	PI_controller_Init:
  24              	.LFB37:
  25              	 .file 1 "../PMSM_FOC/ControlModules/pmsm_foc_pi.c"
   1:../PMSM_FOC/ControlModules/pmsm_foc_pi.c **** /**
   2:../PMSM_FOC/ControlModules/pmsm_foc_pi.c ****  * @file pmsm_foc_pi.c
   3:../PMSM_FOC/ControlModules/pmsm_foc_pi.c ****  * @date 2015-12-23
   4:../PMSM_FOC/ControlModules/pmsm_foc_pi.c ****  *
   5:../PMSM_FOC/ControlModules/pmsm_foc_pi.c ****  * @cond
   6:../PMSM_FOC/ControlModules/pmsm_foc_pi.c ****  **************************************************************************************************
   7:../PMSM_FOC/ControlModules/pmsm_foc_pi.c ****  * PMSM FOC Motor Control Library
   8:../PMSM_FOC/ControlModules/pmsm_foc_pi.c ****  *
   9:../PMSM_FOC/ControlModules/pmsm_foc_pi.c ****  * Copyright (c) 2015-2016, Infineon Technologies AG
  10:../PMSM_FOC/ControlModules/pmsm_foc_pi.c ****  * All rights reserved.
  11:../PMSM_FOC/ControlModules/pmsm_foc_pi.c ****  *
  12:../PMSM_FOC/ControlModules/pmsm_foc_pi.c ****  * Redistribution and use in source and binary forms, with or without modification,are permitted pr
  13:../PMSM_FOC/ControlModules/pmsm_foc_pi.c ****  * following conditions are met:
  14:../PMSM_FOC/ControlModules/pmsm_foc_pi.c ****  *
  15:../PMSM_FOC/ControlModules/pmsm_foc_pi.c ****  *   Redistributions of source code must retain the above copyright notice, this list of conditions
  16:../PMSM_FOC/ControlModules/pmsm_foc_pi.c ****  *   disclaimer.
  17:../PMSM_FOC/ControlModules/pmsm_foc_pi.c ****  *
  18:../PMSM_FOC/ControlModules/pmsm_foc_pi.c ****  *   Redistributions in binary form must reproduce the above copyright notice, this list of conditi
  19:../PMSM_FOC/ControlModules/pmsm_foc_pi.c ****  *   following disclaimer in the documentation and/or other materials provided with the distributio
  20:../PMSM_FOC/ControlModules/pmsm_foc_pi.c ****  *
  21:../PMSM_FOC/ControlModules/pmsm_foc_pi.c ****  *   Neither the name of the copyright holders nor the names of its contributors may be used to end
  22:../PMSM_FOC/ControlModules/pmsm_foc_pi.c ****  *   products derived from this software without specific prior written permission.
  23:../PMSM_FOC/ControlModules/pmsm_foc_pi.c ****  *
  24:../PMSM_FOC/ControlModules/pmsm_foc_pi.c ****  * THIS SOFTWARE IS PROVIDED BY THE COPYRIGHT HOLDERS AND CONTRIBUTORS "AS IS" AND ANY EXPRESS OR I
  25:../PMSM_FOC/ControlModules/pmsm_foc_pi.c ****  * INCLUDING, BUT NOT LIMITED TO, THE IMPLIED WARRANTIES OF MERCHANTABILITY AND FITNESS FOR A PARTI
  26:../PMSM_FOC/ControlModules/pmsm_foc_pi.c ****  * DISCLAIMED. IN NO EVENT SHALL THE COPYRIGHT HOLDER OR CONTRIBUTORS BE LIABLE  FOR ANY DIRECT, IN
  27:../PMSM_FOC/ControlModules/pmsm_foc_pi.c ****  * SPECIAL, EXEMPLARY, OR CONSEQUENTIAL DAMAGES (INCLUDING, BUT NOT LIMITED TO, PROCUREMENT OF SUBS
  28:../PMSM_FOC/ControlModules/pmsm_foc_pi.c ****  * SERVICES; LOSS OF USE, DATA, OR PROFITS; OR BUSINESS INTERRUPTION) HOWEVER CAUSED AND ON ANY THE
  29:../PMSM_FOC/ControlModules/pmsm_foc_pi.c ****  * WHETHER IN CONTRACT, STRICT LIABILITY,OR TORT (INCLUDING NEGLIGENCE OR OTHERWISE) ARISING IN ANY
  30:../PMSM_FOC/ControlModules/pmsm_foc_pi.c ****  * USE OF THIS SOFTWARE, EVEN IF ADVISED OF THE POSSIBILITY OF SUCH DAMAGE.
  31:../PMSM_FOC/ControlModules/pmsm_foc_pi.c ****  *
  32:../PMSM_FOC/ControlModules/pmsm_foc_pi.c ****  * To improve the quality of the software, users are encouraged to share modifications, enhancement
  33:../PMSM_FOC/ControlModules/pmsm_foc_pi.c ****  * with Infineon Technologies AG (dave@infineon.com).
  34:../PMSM_FOC/ControlModules/pmsm_foc_pi.c ****  **************************************************************************************************
  35:../PMSM_FOC/ControlModules/pmsm_foc_pi.c ****  *
  36:../PMSM_FOC/ControlModules/pmsm_foc_pi.c ****  * Change History
  37:../PMSM_FOC/ControlModules/pmsm_foc_pi.c ****  *
  38:../PMSM_FOC/ControlModules/pmsm_foc_pi.c ****  * 23 Dec 2015 Version 1.0.0 <br>:
  39:../PMSM_FOC/ControlModules/pmsm_foc_pi.c ****  *      Initial version
  40:../PMSM_FOC/ControlModules/pmsm_foc_pi.c ****  * @endcond
  41:../PMSM_FOC/ControlModules/pmsm_foc_pi.c ****  *
  42:../PMSM_FOC/ControlModules/pmsm_foc_pi.c ****  */
  43:../PMSM_FOC/ControlModules/pmsm_foc_pi.c **** 
  44:../PMSM_FOC/ControlModules/pmsm_foc_pi.c **** /**************************************************************************************************
  45:../PMSM_FOC/ControlModules/pmsm_foc_pi.c ****  * HEADER FILES
  46:../PMSM_FOC/ControlModules/pmsm_foc_pi.c ****  **************************************************************************************************
  47:../PMSM_FOC/ControlModules/pmsm_foc_pi.c **** 
  48:../PMSM_FOC/ControlModules/pmsm_foc_pi.c **** #include "pmsm_foc_pi.h"
  49:../PMSM_FOC/ControlModules/pmsm_foc_pi.c **** 
  50:../PMSM_FOC/ControlModules/pmsm_foc_pi.c **** /**************************************************************************************************
  51:../PMSM_FOC/ControlModules/pmsm_foc_pi.c ****  * DATA STRUCTURES
  52:../PMSM_FOC/ControlModules/pmsm_foc_pi.c ****  **************************************************************************************************
  53:../PMSM_FOC/ControlModules/pmsm_foc_pi.c **** 
  54:../PMSM_FOC/ControlModules/pmsm_foc_pi.c **** PI_Coefs_Type PI_Speed; /* Speed PI controller. */
  55:../PMSM_FOC/ControlModules/pmsm_foc_pi.c **** PI_Coefs_Type PI_Torque; /* Torque / Iq PI controller. */
  56:../PMSM_FOC/ControlModules/pmsm_foc_pi.c **** PI_Coefs_Type PI_Flux; /* Flux /Id PI controller. */
  57:../PMSM_FOC/ControlModules/pmsm_foc_pi.c **** PI_Coefs_Type PI_PLL; /* PLL rotor speed PI controller. */
  58:../PMSM_FOC/ControlModules/pmsm_foc_pi.c **** 
  59:../PMSM_FOC/ControlModules/pmsm_foc_pi.c **** /**************************************************************************************************
  60:../PMSM_FOC/ControlModules/pmsm_foc_pi.c ****  * API IMPLEMENTATION
  61:../PMSM_FOC/ControlModules/pmsm_foc_pi.c ****  **************************************************************************************************
  62:../PMSM_FOC/ControlModules/pmsm_foc_pi.c **** 
  63:../PMSM_FOC/ControlModules/pmsm_foc_pi.c **** /* API to initialize PI Controller parameters */
  64:../PMSM_FOC/ControlModules/pmsm_foc_pi.c **** void PI_controller_Init(void)
  65:../PMSM_FOC/ControlModules/pmsm_foc_pi.c **** {
  26              	 .loc 1 65 0
  27              	 .cfi_startproc
  66:../PMSM_FOC/ControlModules/pmsm_foc_pi.c ****   /*################### For Speed PI controller ######################*/
  67:../PMSM_FOC/ControlModules/pmsm_foc_pi.c **** 	PI_Speed.Kp = (uint16_t)PI_SPEED_KP;
  28              	 .loc 1 67 0
  29 0000 2A4B     	 ldr r3,.L2
  30 0002 2B4A     	 ldr r2,.L2+4
  31 0004 9988     	 ldrh r1,[r3,#4]
  65:../PMSM_FOC/ControlModules/pmsm_foc_pi.c ****   /*################### For Speed PI controller ######################*/
  32              	 .loc 1 65 0
  33 0006 70B5     	 push {r4,r5,r6,lr}
  34              	 .cfi_def_cfa_offset 16
  35              	 .cfi_offset 4,-16
  36              	 .cfi_offset 5,-12
  37              	 .cfi_offset 6,-8
  38              	 .cfi_offset 14,-4
  39              	 .loc 1 67 0
  40 0008 9181     	 strh r1,[r2,#12]
  68:../PMSM_FOC/ControlModules/pmsm_foc_pi.c **** 	PI_Speed.Ki = PI_SPEED_KI;
  41              	 .loc 1 68 0
  42 000a 1989     	 ldrh r1,[r3,#8]
  69:../PMSM_FOC/ControlModules/pmsm_foc_pi.c **** 	PI_Speed.Scale_KpKi = PI_SPEED_SCALE_KPKI;
  70:../PMSM_FOC/ControlModules/pmsm_foc_pi.c **** 
  71:../PMSM_FOC/ControlModules/pmsm_foc_pi.c **** 	PI_Speed.Ik_limit_min = PI_SPEED_IK_LIMIT_MIN;
  72:../PMSM_FOC/ControlModules/pmsm_foc_pi.c **** 	PI_Speed.Ik_limit_max = PI_SPEED_IK_LIMIT_MAX;
  73:../PMSM_FOC/ControlModules/pmsm_foc_pi.c **** 	PI_Speed.Ik_limit_min <<= PI_Speed.Scale_KpKi;		/* Ik (32-bit) limits shift, due to PI Controller 
  43              	 .loc 1 73 0
  44 000c 2948     	 ldr r0,.L2+8
  68:../PMSM_FOC/ControlModules/pmsm_foc_pi.c **** 	PI_Speed.Ki = PI_SPEED_KI;
  45              	 .loc 1 68 0
  46 000e D181     	 strh r1,[r2,#14]
  69:../PMSM_FOC/ControlModules/pmsm_foc_pi.c **** 	PI_Speed.Scale_KpKi = PI_SPEED_SCALE_KPKI;
  47              	 .loc 1 69 0
  48 0010 9989     	 ldrh r1,[r3,#12]
  74:../PMSM_FOC/ControlModules/pmsm_foc_pi.c **** 	PI_Speed.Ik_limit_max <<= PI_Speed.Scale_KpKi;
  75:../PMSM_FOC/ControlModules/pmsm_foc_pi.c ****   PI_Speed.Uk_limit_status = 0;
  76:../PMSM_FOC/ControlModules/pmsm_foc_pi.c **** 
  77:../PMSM_FOC/ControlModules/pmsm_foc_pi.c **** 	PI_Speed.Ik = 0;
  78:../PMSM_FOC/ControlModules/pmsm_foc_pi.c **** 
  79:../PMSM_FOC/ControlModules/pmsm_foc_pi.c **** 	PI_Speed.Uk_limit_min = PI_SPEED_UK_LIMIT_MIN;
  80:../PMSM_FOC/ControlModules/pmsm_foc_pi.c **** 	PI_Speed.Uk_limit_max = PI_SPEED_UK_LIMIT_MAX;
  81:../PMSM_FOC/ControlModules/pmsm_foc_pi.c **** 
  82:../PMSM_FOC/ControlModules/pmsm_foc_pi.c ****   /*################### For Torque / Iq PI controller ######################*/
  83:../PMSM_FOC/ControlModules/pmsm_foc_pi.c **** 	PI_Torque.Kp = PI_TORQUE_KP;
  84:../PMSM_FOC/ControlModules/pmsm_foc_pi.c **** 	PI_Torque.Ki = PI_TORQUE_KI;
  85:../PMSM_FOC/ControlModules/pmsm_foc_pi.c **** 	PI_Torque.Scale_KpKi = PI_TORQUE_SCALE_KPKI;
  86:../PMSM_FOC/ControlModules/pmsm_foc_pi.c **** 
  87:../PMSM_FOC/ControlModules/pmsm_foc_pi.c **** 	PI_Torque.Ik_limit_min = PI_TORQUE_IK_LIMIT_MIN;
  88:../PMSM_FOC/ControlModules/pmsm_foc_pi.c **** 	PI_Torque.Ik_limit_max = PI_TORQUE_IK_LIMIT_MAX;
  89:../PMSM_FOC/ControlModules/pmsm_foc_pi.c **** 	PI_Torque.Ik_limit_min <<= PI_Torque.Scale_KpKi;	/* Ik limits shift. */
  49              	 .loc 1 89 0
  50 0012 294D     	 ldr r5,.L2+12
  69:../PMSM_FOC/ControlModules/pmsm_foc_pi.c **** 	PI_Speed.Scale_KpKi = PI_SPEED_SCALE_KPKI;
  51              	 .loc 1 69 0
  52 0014 1182     	 strh r1,[r2,#16]
  73:../PMSM_FOC/ControlModules/pmsm_foc_pi.c **** 	PI_Speed.Ik_limit_max <<= PI_Speed.Scale_KpKi;
  53              	 .loc 1 73 0
  54 0016 09B2     	 sxth r1,r1
  55 0018 8840     	 lsl r0,r0,r1
  56 001a 5061     	 str r0,[r2,#20]
  74:../PMSM_FOC/ControlModules/pmsm_foc_pi.c **** 	PI_Speed.Ik_limit_max <<= PI_Speed.Scale_KpKi;
  57              	 .loc 1 74 0
  58 001c 8020     	 mov r0,#128
  59 001e C001     	 lsl r0,r0,#7
  60 0020 8840     	 lsl r0,r0,r1
  75:../PMSM_FOC/ControlModules/pmsm_foc_pi.c **** 
  61              	 .loc 1 75 0
  62 0022 2421     	 mov r1,#36
  74:../PMSM_FOC/ControlModules/pmsm_foc_pi.c **** 	PI_Speed.Ik_limit_max <<= PI_Speed.Scale_KpKi;
  63              	 .loc 1 74 0
  64 0024 9061     	 str r0,[r2,#24]
  75:../PMSM_FOC/ControlModules/pmsm_foc_pi.c **** 
  65              	 .loc 1 75 0
  66 0026 0020     	 mov r0,#0
  67              	 .loc 1 89 0
  68 0028 2E1C     	 mov r6,r5
  80:../PMSM_FOC/ControlModules/pmsm_foc_pi.c **** 
  69              	 .loc 1 80 0
  70 002a 244C     	 ldr r4,.L2+16
  75:../PMSM_FOC/ControlModules/pmsm_foc_pi.c **** 
  71              	 .loc 1 75 0
  72 002c 5054     	 strb r0,[r2,r1]
  79:../PMSM_FOC/ControlModules/pmsm_foc_pi.c **** 	PI_Speed.Uk_limit_max = PI_SPEED_UK_LIMIT_MAX;
  73              	 .loc 1 79 0
  74 002e 2039     	 sub r1,r1,#32
  77:../PMSM_FOC/ControlModules/pmsm_foc_pi.c **** 
  75              	 .loc 1 77 0
  76 0030 9060     	 str r0,[r2,#8]
  79:../PMSM_FOC/ControlModules/pmsm_foc_pi.c **** 	PI_Speed.Uk_limit_max = PI_SPEED_UK_LIMIT_MAX;
  77              	 .loc 1 79 0
  78 0032 D161     	 str r1,[r2,#28]
  80:../PMSM_FOC/ControlModules/pmsm_foc_pi.c **** 
  79              	 .loc 1 80 0
  80 0034 1462     	 str r4,[r2,#32]
  83:../PMSM_FOC/ControlModules/pmsm_foc_pi.c **** 	PI_Torque.Ki = PI_TORQUE_KI;
  81              	 .loc 1 83 0
  82 0036 198A     	 ldrh r1,[r3,#16]
  83 0038 214A     	 ldr r2,.L2+20
  90:../PMSM_FOC/ControlModules/pmsm_foc_pi.c **** 	PI_Torque.Ik_limit_max <<= PI_Torque.Scale_KpKi;
  91:../PMSM_FOC/ControlModules/pmsm_foc_pi.c **** 
  92:../PMSM_FOC/ControlModules/pmsm_foc_pi.c **** 	PI_Torque.Ik = 0;
  93:../PMSM_FOC/ControlModules/pmsm_foc_pi.c **** 
  94:../PMSM_FOC/ControlModules/pmsm_foc_pi.c **** 	PI_Torque.Uk_limit_min = PI_TORQUE_UK_LIMIT_MIN;
  95:../PMSM_FOC/ControlModules/pmsm_foc_pi.c **** 	PI_Torque.Uk_limit_max = PI_TORQUE_UK_LIMIT_MAX;
  96:../PMSM_FOC/ControlModules/pmsm_foc_pi.c **** 
  97:../PMSM_FOC/ControlModules/pmsm_foc_pi.c ****   /*################### For Flux / Id PI controller ######################*/
  98:../PMSM_FOC/ControlModules/pmsm_foc_pi.c **** 	PI_Flux.Kp = PI_FLUX_KP;
  99:../PMSM_FOC/ControlModules/pmsm_foc_pi.c **** 	PI_Flux.Ki = PI_FLUX_KI;
 100:../PMSM_FOC/ControlModules/pmsm_foc_pi.c **** 	PI_Flux.Scale_KpKi = PI_FLUX_SCALE_KPKI;
 101:../PMSM_FOC/ControlModules/pmsm_foc_pi.c **** 
 102:../PMSM_FOC/ControlModules/pmsm_foc_pi.c **** 	PI_Flux.Ik_limit_min = PI_FLUX_IK_LIMIT_MIN;
 103:../PMSM_FOC/ControlModules/pmsm_foc_pi.c **** 	PI_Flux.Ik_limit_max = PI_FLUX_IK_LIMIT_MAX;
 104:../PMSM_FOC/ControlModules/pmsm_foc_pi.c **** 	PI_Flux.Ik_limit_min <<= PI_Flux.Scale_KpKi;		/* Ik limits shift. */
 105:../PMSM_FOC/ControlModules/pmsm_foc_pi.c **** 	PI_Flux.Ik_limit_max <<= PI_Flux.Scale_KpKi;
 106:../PMSM_FOC/ControlModules/pmsm_foc_pi.c **** 
 107:../PMSM_FOC/ControlModules/pmsm_foc_pi.c **** 	PI_Flux.Ik = 0;
 108:../PMSM_FOC/ControlModules/pmsm_foc_pi.c **** 
 109:../PMSM_FOC/ControlModules/pmsm_foc_pi.c **** 	PI_Flux.Uk_limit_min = PI_FLUX_UK_LIMIT_MIN;
 110:../PMSM_FOC/ControlModules/pmsm_foc_pi.c **** 	PI_Flux.Uk_limit_max = PI_FLUX_UK_LIMIT_MAX;
 111:../PMSM_FOC/ControlModules/pmsm_foc_pi.c **** 
 112:../PMSM_FOC/ControlModules/pmsm_foc_pi.c ****   /*################### For PLL rotor speed PI controller ######################*/
 113:../PMSM_FOC/ControlModules/pmsm_foc_pi.c **** 	PI_PLL.Kp = (uint16_t)PI_PLL_KP;
 114:../PMSM_FOC/ControlModules/pmsm_foc_pi.c **** 	PI_PLL.Ki = (uint16_t)PI_PLL_KI;
 115:../PMSM_FOC/ControlModules/pmsm_foc_pi.c **** 	PI_PLL.Scale_KpKi = PI_PLL_SCALE_KPKI;
 116:../PMSM_FOC/ControlModules/pmsm_foc_pi.c **** 
 117:../PMSM_FOC/ControlModules/pmsm_foc_pi.c **** 	PI_PLL.Ik_limit_min = (int32_t)PI_PLL_IK_LIMIT_MIN;
 118:../PMSM_FOC/ControlModules/pmsm_foc_pi.c **** 	PI_PLL.Ik_limit_max = (int32_t)PI_PLL_IK_LIMIT_MAX;
 119:../PMSM_FOC/ControlModules/pmsm_foc_pi.c **** 	PI_PLL.Ik_limit_min <<= PI_PLL.Scale_KpKi;			/* Ik limits shift. */
 120:../PMSM_FOC/ControlModules/pmsm_foc_pi.c **** 	PI_PLL.Ik_limit_max <<= PI_PLL.Scale_KpKi;
 121:../PMSM_FOC/ControlModules/pmsm_foc_pi.c **** 
 122:../PMSM_FOC/ControlModules/pmsm_foc_pi.c **** 	PI_PLL.Ik = 0;
 123:../PMSM_FOC/ControlModules/pmsm_foc_pi.c **** 
 124:../PMSM_FOC/ControlModules/pmsm_foc_pi.c **** 	PI_PLL.Uk_limit_min = (int32_t)PI_PLL_UK_LIMIT_MIN;
 125:../PMSM_FOC/ControlModules/pmsm_foc_pi.c **** 	PI_PLL.Uk_limit_max = (int32_t)PI_PLL_UK_LIMIT_MAX;
 126:../PMSM_FOC/ControlModules/pmsm_foc_pi.c **** 
 127:../PMSM_FOC/ControlModules/pmsm_foc_pi.c **** 
 128:../PMSM_FOC/ControlModules/pmsm_foc_pi.c **** }	/* End of PI_controller_Init () */
  84              	 .loc 1 128 0
  85              	 
  83:../PMSM_FOC/ControlModules/pmsm_foc_pi.c **** 	PI_Torque.Ki = PI_TORQUE_KI;
  86              	 .loc 1 83 0
  87 003a 9181     	 strh r1,[r2,#12]
  84:../PMSM_FOC/ControlModules/pmsm_foc_pi.c **** 	PI_Torque.Scale_KpKi = PI_TORQUE_SCALE_KPKI;
  88              	 .loc 1 84 0
  89 003c 998A     	 ldrh r1,[r3,#20]
  94:../PMSM_FOC/ControlModules/pmsm_foc_pi.c **** 	PI_Torque.Uk_limit_max = PI_TORQUE_UK_LIMIT_MAX;
  90              	 .loc 1 94 0
  91 003e D561     	 str r5,[r2,#28]
  84:../PMSM_FOC/ControlModules/pmsm_foc_pi.c **** 	PI_Torque.Scale_KpKi = PI_TORQUE_SCALE_KPKI;
  92              	 .loc 1 84 0
  93 0040 D181     	 strh r1,[r2,#14]
  85:../PMSM_FOC/ControlModules/pmsm_foc_pi.c **** 
  94              	 .loc 1 85 0
  95 0042 198B     	 ldrh r1,[r3,#24]
  92:../PMSM_FOC/ControlModules/pmsm_foc_pi.c **** 
  96              	 .loc 1 92 0
  97 0044 9060     	 str r0,[r2,#8]
  85:../PMSM_FOC/ControlModules/pmsm_foc_pi.c **** 
  98              	 .loc 1 85 0
  99 0046 1182     	 strh r1,[r2,#16]
  89:../PMSM_FOC/ControlModules/pmsm_foc_pi.c **** 	PI_Torque.Ik_limit_max <<= PI_Torque.Scale_KpKi;
 100              	 .loc 1 89 0
 101 0048 09B2     	 sxth r1,r1
 102 004a 8E40     	 lsl r6,r6,r1
 103 004c 5661     	 str r6,[r2,#20]
  90:../PMSM_FOC/ControlModules/pmsm_foc_pi.c **** 
 104              	 .loc 1 90 0
 105 004e 261C     	 mov r6,r4
 106 0050 8E40     	 lsl r6,r6,r1
 107 0052 9661     	 str r6,[r2,#24]
 104:../PMSM_FOC/ControlModules/pmsm_foc_pi.c **** 	PI_Flux.Ik_limit_max <<= PI_Flux.Scale_KpKi;
 108              	 .loc 1 104 0
 109 0054 2E1C     	 mov r6,r5
  98:../PMSM_FOC/ControlModules/pmsm_foc_pi.c **** 	PI_Flux.Ki = PI_FLUX_KI;
 110              	 .loc 1 98 0
 111 0056 998B     	 ldrh r1,[r3,#28]
  95:../PMSM_FOC/ControlModules/pmsm_foc_pi.c **** 
 112              	 .loc 1 95 0
 113 0058 1462     	 str r4,[r2,#32]
  98:../PMSM_FOC/ControlModules/pmsm_foc_pi.c **** 	PI_Flux.Ki = PI_FLUX_KI;
 114              	 .loc 1 98 0
 115 005a 1A4A     	 ldr r2,.L2+24
 116 005c 9181     	 strh r1,[r2,#12]
  99:../PMSM_FOC/ControlModules/pmsm_foc_pi.c **** 	PI_Flux.Scale_KpKi = PI_FLUX_SCALE_KPKI;
 117              	 .loc 1 99 0
 118 005e 198C     	 ldrh r1,[r3,#32]
 119 0060 D181     	 strh r1,[r2,#14]
 100:../PMSM_FOC/ControlModules/pmsm_foc_pi.c **** 
 120              	 .loc 1 100 0
 121 0062 998C     	 ldrh r1,[r3,#36]
 122 0064 1182     	 strh r1,[r2,#16]
 104:../PMSM_FOC/ControlModules/pmsm_foc_pi.c **** 	PI_Flux.Ik_limit_max <<= PI_Flux.Scale_KpKi;
 123              	 .loc 1 104 0
 124 0066 09B2     	 sxth r1,r1
 125 0068 8E40     	 lsl r6,r6,r1
 126 006a 5661     	 str r6,[r2,#20]
 105:../PMSM_FOC/ControlModules/pmsm_foc_pi.c **** 
 127              	 .loc 1 105 0
 128 006c 261C     	 mov r6,r4
 129 006e 8E40     	 lsl r6,r6,r1
 109:../PMSM_FOC/ControlModules/pmsm_foc_pi.c **** 	PI_Flux.Uk_limit_max = PI_FLUX_UK_LIMIT_MAX;
 130              	 .loc 1 109 0
 131 0070 D561     	 str r5,[r2,#28]
 105:../PMSM_FOC/ControlModules/pmsm_foc_pi.c **** 
 132              	 .loc 1 105 0
 133 0072 9661     	 str r6,[r2,#24]
 110:../PMSM_FOC/ControlModules/pmsm_foc_pi.c **** 
 134              	 .loc 1 110 0
 135 0074 1462     	 str r4,[r2,#32]
 113:../PMSM_FOC/ControlModules/pmsm_foc_pi.c **** 	PI_PLL.Ki = (uint16_t)PI_PLL_KI;
 136              	 .loc 1 113 0
 137 0076 198D     	 ldrh r1,[r3,#40]
 107:../PMSM_FOC/ControlModules/pmsm_foc_pi.c **** 
 138              	 .loc 1 107 0
 139 0078 9060     	 str r0,[r2,#8]
 113:../PMSM_FOC/ControlModules/pmsm_foc_pi.c **** 	PI_PLL.Ki = (uint16_t)PI_PLL_KI;
 140              	 .loc 1 113 0
 141 007a 134A     	 ldr r2,.L2+28
 142 007c 9181     	 strh r1,[r2,#12]
 114:../PMSM_FOC/ControlModules/pmsm_foc_pi.c **** 	PI_PLL.Scale_KpKi = PI_PLL_SCALE_KPKI;
 143              	 .loc 1 114 0
 144 007e 998D     	 ldrh r1,[r3,#44]
 122:../PMSM_FOC/ControlModules/pmsm_foc_pi.c **** 
 145              	 .loc 1 122 0
 146 0080 9060     	 str r0,[r2,#8]
 114:../PMSM_FOC/ControlModules/pmsm_foc_pi.c **** 	PI_PLL.Scale_KpKi = PI_PLL_SCALE_KPKI;
 147              	 .loc 1 114 0
 148 0082 D181     	 strh r1,[r2,#14]
 115:../PMSM_FOC/ControlModules/pmsm_foc_pi.c **** 
 149              	 .loc 1 115 0
 150 0084 196B     	 ldr r1,[r3,#48]
 117:../PMSM_FOC/ControlModules/pmsm_foc_pi.c **** 	PI_PLL.Ik_limit_max = (int32_t)PI_PLL_IK_LIMIT_MAX;
 151              	 .loc 1 117 0
 152 0086 1E23     	 mov r3,#30
 115:../PMSM_FOC/ControlModules/pmsm_foc_pi.c **** 
 153              	 .loc 1 115 0
 154 0088 8CB2     	 uxth r4,r1
 117:../PMSM_FOC/ControlModules/pmsm_foc_pi.c **** 	PI_PLL.Ik_limit_max = (int32_t)PI_PLL_IK_LIMIT_MAX;
 155              	 .loc 1 117 0
 156 008a 5B1A     	 sub r3,r3,r1
 157 008c 0121     	 mov r1,#1
 158 008e 9940     	 lsl r1,r1,r3
 159 0090 0B1C     	 mov r3,r1
 119:../PMSM_FOC/ControlModules/pmsm_foc_pi.c **** 	PI_PLL.Ik_limit_max <<= PI_PLL.Scale_KpKi;
 160              	 .loc 1 119 0
 161 0092 21B2     	 sxth r1,r4
 115:../PMSM_FOC/ControlModules/pmsm_foc_pi.c **** 
 162              	 .loc 1 115 0
 163 0094 1482     	 strh r4,[r2,#16]
 117:../PMSM_FOC/ControlModules/pmsm_foc_pi.c **** 	PI_PLL.Ik_limit_max = (int32_t)PI_PLL_IK_LIMIT_MAX;
 164              	 .loc 1 117 0
 165 0096 5C42     	 neg r4,r3
 120:../PMSM_FOC/ControlModules/pmsm_foc_pi.c **** 
 166              	 .loc 1 120 0
 167 0098 8B40     	 lsl r3,r3,r1
 168 009a 9361     	 str r3,[r2,#24]
 124:../PMSM_FOC/ControlModules/pmsm_foc_pi.c **** 	PI_PLL.Uk_limit_max = (int32_t)PI_PLL_UK_LIMIT_MAX;
 169              	 .loc 1 124 0
 170 009c 9123     	 mov r3,#145
 119:../PMSM_FOC/ControlModules/pmsm_foc_pi.c **** 	PI_PLL.Ik_limit_max <<= PI_PLL.Scale_KpKi;
 171              	 .loc 1 119 0
 172 009e 8C40     	 lsl r4,r4,r1
 124:../PMSM_FOC/ControlModules/pmsm_foc_pi.c **** 	PI_PLL.Uk_limit_max = (int32_t)PI_PLL_UK_LIMIT_MAX;
 173              	 .loc 1 124 0
 174 00a0 5B00     	 lsl r3,r3,#1
 175 00a2 D361     	 str r3,[r2,#28]
 125:../PMSM_FOC/ControlModules/pmsm_foc_pi.c **** 
 176              	 .loc 1 125 0
 177 00a4 094B     	 ldr r3,.L2+32
 119:../PMSM_FOC/ControlModules/pmsm_foc_pi.c **** 	PI_PLL.Ik_limit_max <<= PI_PLL.Scale_KpKi;
 178              	 .loc 1 119 0
 179 00a6 5461     	 str r4,[r2,#20]
 125:../PMSM_FOC/ControlModules/pmsm_foc_pi.c **** 
 180              	 .loc 1 125 0
 181 00a8 1362     	 str r3,[r2,#32]
 182              	 .loc 1 128 0
 183 00aa 70BD     	 pop {r4,r5,r6,pc}
 184              	.L3:
 185              	 .align 2
 186              	.L2:
 187 00ac 00000000 	 .word User_Para
 188 00b0 00000000 	 .word PI_Speed
 189 00b4 00C0FFFF 	 .word -16384
 190 00b8 0080FFFF 	 .word -32768
 191 00bc FF7F0000 	 .word 32767
 192 00c0 00000000 	 .word PI_Torque
 193 00c4 00000000 	 .word PI_Flux
 194 00c8 00000000 	 .word PI_PLL
 195 00cc 88460000 	 .word 18056
 196              	 .cfi_endproc
 197              	.LFE37:
 199              	 .comm PI_PLL,40,4
 200              	 .comm PI_Flux,40,4
 201              	 .comm PI_Torque,40,4
 202              	 .comm PI_Speed,40,4
 203              	 .text
 204              	.Letext0:
 205              	 .file 2 "c:\\dave-ide-4.4.2-64bit\\eclipse\\arm-gcc-49\\arm-none-eabi\\include\\machine\\_default_types.h"
 206              	 .file 3 "c:\\dave-ide-4.4.2-64bit\\eclipse\\arm-gcc-49\\arm-none-eabi\\include\\stdint.h"
 207              	 .file 4 "../PMSM_FOC/ControlModules/pmsm_foc_pi.h"
 208              	 .file 5 "../PMSM_FOC/ControlModules/../Configuration/pmsm_foc_user_parameter.h"